target datalayout = "e-m:e-p270:32:32-p271:32:32-p272:64:64-i64:64-i128:128-f80:128-n8:16:32:64-S128"
target triple = "x86_64-pc-linux-gnu"

%struct.ImVec2 = type { float, float }
%struct.ImGuiStyle = type { float, float, %struct.ImVec2, float, float, %struct.ImVec2, %struct.ImVec2, i32, float, float, float, float, %struct.ImVec2, float, float, %struct.ImVec2, %struct.ImVec2, %struct.ImVec2, %struct.ImVec2, float, float, float, float, float, float, float, float, float, float, float, float, float, %struct.ImVec2, i32, %struct.ImVec2, %struct.ImVec2, float, %struct.ImVec2, %struct.ImVec2, %struct.ImVec2, %struct.ImVec2, float, i8, i8, i8, float, float, [56 x %struct.ImVec4], float, float, float, i32, i32 }
%struct.ImVec4 = type { float, float, float, float }
%struct.ImGuiIO = type { i32, i32, %struct.ImVec2, float, float, ptr, ptr, ptr, ptr, float, i8, ptr, %struct.ImVec2, i8, i8, i8, i8, i8, i8, i8, i8, i8, i8, float, float, float, float, float, float, i8, i8, i8, i8, i8, i8, i8, i8, i8, i8, ptr, ptr, ptr, ptr, ptr, i8, i8, i8, i8, i8, i8, i8, float, i32, i32, i32, i32, %struct.ImVec2, ptr, %struct.ImVec2, [5 x i8], float, float, i32, i8, i8, i8, i8, i32, [154 x %struct.ImGuiKeyData], i8, %struct.ImVec2, [5 x %struct.ImVec2], [5 x double], [5 x i8], [5 x i8], [5 x i16], [5 x i16], [5 x i8], [5 x i8], [5 x i8], i8, i8, [5 x float], [5 x float], [5 x float], float, i8, i8, i8, i8, i16, %struct.ImVector }
%struct.ImGuiKeyData = type { i8, float, float, float }
%struct.ImVector = type { i32, i32, ptr }
%struct.ImGuiContext = type { i8, i8, %struct.ImGuiIO, %struct.ImGuiPlatformIO, %struct.ImGuiStyle, ptr, float, float, float, float, %struct.ImDrawListSharedData, double, i32, i32, i32, i8, i8, i8, i8, i8, ptr, [16 x i8], %struct.ImVector.1, %struct.ImVector.1, i32, i32, %struct.ImVector.2, %struct.ImVector.2, %struct.ImVector.2, %struct.ImVector.3, %struct.ImGuiStorage, i32, %struct.ImVec2, i32, ptr, ptr, ptr, ptr, ptr, ptr, %struct.ImVec2, i32, i32, float, %struct.ImVec2, %struct.ImVec2, i32, i32, i32, i32, i32, float, float, i8, i8, i8, i32, i32, float, i8, i8, i8, i8, i8, i8, i8, i8, %struct.ImVec2, ptr, i32, i32, i8, i8, ptr, i32, float, double, double, double, %struct.ImBitArray, [154 x %struct.ImGuiKeyOwnerData], %struct.ImGuiKeyRoutingTable, i32, i8, i32, i32, i32, i32, %struct.ImGuiNextItemData, %struct.ImGuiLastItemData, %struct.ImGuiNextWindowData, i8, i32, %struct.ImVector.6, %struct.ImVector.7, %struct.ImVector.8, %struct.ImVector.9, %struct.ImVector.10, %struct.ImVector.11, %struct.ImVector.12, %struct.ImVector.12, %struct.ImVector.13, %struct.ImVector.14, ptr, i32, i32, i32, i32, i32, i32, i32, %struct.ImVector.9, i32, float, i32, i32, i32, i64, i8, i8, i8, i8, i8, i8, i8, %struct.ImGuiNavItemData, i8, i8, i8, i32, i32, i32, i32, i32, i32, %struct.ImRect, %struct.ImRect, i32, i32, i32, %struct.ImGuiNavItemData, %struct.ImGuiNavItemData, %struct.ImGuiNavItemData, %struct.ImGuiNavItemData, i32, i32, i32, i32, i8, i8, i32, i32, ptr, ptr, ptr, float, float, i8, i32, %struct.ImVec2, %struct.ImVec2, float, i8, i8, i8, i32, i32, i32, [4 x i8], %struct.ImGuiPayload, %struct.ImRect, %struct.ImRect, i32, i32, float, i32, i32, i32, i32, %struct.ImVector.15, [16 x i8], i32, %struct.ImVector.16, ptr, i32, i32, %struct.ImVector.17, %struct.ImPool, %struct.ImVector.19, %struct.ImVector.20, ptr, %struct.ImPool.21, %struct.ImVector.23, %struct.ImVector.24, %struct.ImGuiBoxSelectState, ptr, i32, %struct.ImVector.25, %struct.ImPool.26, i32, i32, float, float, i32, i32, i32, float, %struct.ImVec2, %struct.ImGuiInputTextState, %struct.ImGuiInputTextDeactivatedState, %struct.ImFont, i32, %struct.ImGuiDataTypeStorage, i32, i32, i32, i32, i32, float, float, i32, %struct.ImVec4, %struct.ImGuiComboPreviewData, %struct.ImRect, i8, i16, float, float, float, i8, i8, float, float, float, i16, i16, i16, ptr, %struct.ImVector.28, %struct.ImVector.30, %struct.ImGuiTypingSelectState, %struct.ImGuiPlatformImeData, %struct.ImGuiPlatformImeData, i8, float, %struct.ImGuiTextBuffer, %struct.ImVector.31, %struct.ImChunkStream, %struct.ImChunkStream.32, %struct.ImVector.33, i32, [10 x ptr], i8, i32, ptr, %struct.ImGuiTextBuffer, ptr, ptr, float, i8, i32, i32, i32, ptr, ptr, %struct.ImVec2, i8, i32, %struct.ImGuiErrorRecoveryState, ptr, i32, i32, %struct.ImGuiTextBuffer, %struct.ImGuiTextIndex, i32, i32, i8, i8, i8, i32, i8, i8, i8, i32, float, %struct.ImVec4, %struct.ImGuiMetricsConfig, %struct.ImGuiIDStackTool, %struct.ImGuiDebugAllocInfo, [60 x float], i32, i32, float, i32, i32, i32, %struct.ImVector.28, [64 x i8] }
%struct.ImGuiPlatformIO = type <{ ptr, ptr, ptr, ptr, ptr, ptr, ptr, i16, [6 x i8] }>
%struct.ImDrawListSharedData = type { %struct.ImVec2, ptr, float, float, float, float, %struct.ImVec4, i32, %struct.ImVector.0, [48 x %struct.ImVec2], float, [64 x i8], ptr }
%struct.ImVector.0 = type { i32, i32, ptr }
%struct.ImVector.1 = type { i32, i32, ptr }
%struct.ImVector.2 = type { i32, i32, ptr }
%struct.ImVector.3 = type { i32, i32, ptr }
%struct.ImGuiStorage = type { %struct.ImVector.4 }
%struct.ImVector.4 = type { i32, i32, ptr }
%struct.ImBitArray = type { [5 x i32] }
%struct.ImGuiKeyOwnerData = type <{ i32, i32, i8, i8, [2 x i8] }>
%struct.ImGuiKeyRoutingTable = type { [154 x i16], %struct.ImVector.5, %struct.ImVector.5 }
%struct.ImVector.5 = type { i32, i32, ptr }
%struct.ImGuiNextItemData = type <{ i32, i32, i32, [4 x i8], i64, float, i32, i32, i8, i8, %struct.ImGuiDataTypeStorage, [2 x i8], i32, [4 x i8] }>
%struct.ImGuiLastItemData = type { i32, i32, i32, %struct.ImRect, %struct.ImRect, %struct.ImRect, %struct.ImRect, i32 }
%struct.ImGuiNextWindowData = type { i32, i32, i32, i32, %struct.ImVec2, %struct.ImVec2, %struct.ImVec2, %struct.ImVec2, %struct.ImVec2, i32, i8, %struct.ImRect, ptr, ptr, float, %struct.ImVec2, i32 }
%struct.ImVector.6 = type { i32, i32, ptr }
%struct.ImVector.7 = type { i32, i32, ptr }
%struct.ImVector.8 = type { i32, i32, ptr }
%struct.ImVector.10 = type { i32, i32, ptr }
%struct.ImVector.11 = type { i32, i32, ptr }
%struct.ImVector.12 = type { i32, i32, ptr }
%struct.ImVector.13 = type { i32, i32, ptr }
%struct.ImVector.14 = type { i32, i32, ptr }
%struct.ImVector.9 = type { i32, i32, ptr }
%struct.ImGuiNavItemData = type { ptr, i32, i32, %struct.ImRect, i32, float, float, float, i64 }
%struct.ImGuiPayload = type <{ ptr, i32, i32, i32, i32, [33 x i8], i8, i8, [5 x i8] }>
%struct.ImVector.15 = type { i32, i32, ptr }
%struct.ImVector.16 = type { i32, i32, ptr }
%struct.ImVector.17 = type { i32, i32, ptr }
%struct.ImPool = type { %struct.ImVector.18, %struct.ImGuiStorage, i32, i32 }
%struct.ImVector.18 = type { i32, i32, ptr }
%struct.ImVector.19 = type { i32, i32, ptr }
%struct.ImVector.20 = type { i32, i32, ptr }
%struct.ImPool.21 = type { %struct.ImVector.22, %struct.ImGuiStorage, i32, i32 }
%struct.ImVector.22 = type { i32, i32, ptr }
%struct.ImVector.23 = type { i32, i32, ptr }
%struct.ImVector.24 = type { i32, i32, ptr }
%struct.ImGuiBoxSelectState = type <{ i32, i8, i8, i8, i8, i8, i16, i8, %struct.ImVec2, %struct.ImVec2, %struct.ImVec2, [4 x i8], ptr, i8, [3 x i8], %struct.ImRect, %struct.ImRect, %struct.ImRect, [4 x i8] }>
%struct.ImVector.25 = type { i32, i32, ptr }
%struct.ImPool.26 = type { %struct.ImVector.27, %struct.ImGuiStorage, i32, i32 }
%struct.ImVector.27 = type { i32, i32, ptr }
%struct.ImGuiInputTextState = type <{ ptr, ptr, i32, i32, %struct.ImVector.28, %struct.ImVector.28, %struct.ImVector.28, i32, %struct.ImVec2, float, i8, i8, i8, i8, i32, i8, [3 x i8], i32, i32, [4 x i8] }>
%struct.ImGuiInputTextDeactivatedState = type { i32, %struct.ImVector.28 }
%struct.ImFont = type <{ %struct.ImVector.19, float, float, %struct.ImVector, %struct.ImVector.29, ptr, ptr, ptr, i16, i16, i16, i16, float, float, i8, [3 x i8], float, float, float, i32, [2 x i8], [2 x i8] }>
%struct.ImVector.29 = type { i32, i32, ptr }
%struct.ImGuiDataTypeStorage = type { [8 x i8] }
%struct.ImGuiComboPreviewData = type { %struct.ImRect, %struct.ImVec2, %struct.ImVec2, %struct.ImVec2, float, i32 }
%struct.ImRect = type { %struct.ImVec2, %struct.ImVec2 }
%struct.ImVector.30 = type { i32, i32, ptr }
%struct.ImGuiTypingSelectState = type <{ %struct.ImGuiTypingSelectRequest, [64 x i8], i32, i32, float, i8, [3 x i8] }>
%struct.ImGuiTypingSelectRequest = type { i32, i32, ptr, i8, i8, i8 }
%struct.ImGuiPlatformImeData = type { i8, %struct.ImVec2, float }
%struct.ImVector.31 = type { i32, i32, ptr }
%struct.ImChunkStream = type { %struct.ImVector.28 }
%struct.ImChunkStream.32 = type { %struct.ImVector.28 }
%struct.ImVector.33 = type { i32, i32, ptr }
%struct.ImGuiErrorRecoveryState = type { i16, i16, i16, i16, i16, i16, i16, i16, i16, i16, i16 }
%struct.ImGuiTextBuffer = type { %struct.ImVector.28 }
%struct.ImGuiTextIndex = type <{ %struct.ImVector.10, i32, [4 x i8] }>
%struct.ImGuiMetricsConfig = type { i8, i8, i8, i8, i8, i8, i8, i8, i8, i32, i32, i32, i32 }
%struct.ImGuiIDStackTool = type { i32, i32, i32, %struct.ImVector.34, i8, float }
%struct.ImVector.34 = type { i32, i32, ptr }
%struct.ImGuiDebugAllocInfo = type { i32, i32, i16, [6 x %struct.ImGuiDebugAllocEntry] }
%struct.ImGuiDebugAllocEntry = type { i32, i16, i16 }
%struct.ImVector.28 = type { i32, i32, ptr }
%struct.ImGuiWindow = type <{ ptr, ptr, i32, i32, i32, [4 x i8], ptr, %struct.ImVec2, %struct.ImVec2, %struct.ImVec2, %struct.ImVec2, %struct.ImVec2, %struct.ImVec2, %struct.ImVec2, float, float, float, float, float, float, float, float, float, float, i32, i32, i32, i32, %struct.ImVec2, %struct.ImVec2, %struct.ImVec2, %struct.ImVec2, %struct.ImVec2, %struct.ImVec2, i8, i8, i8, i8, i8, i8, i8, i8, i8, i8, i8, i8, i8, i8, i8, i8, i16, i16, i16, i16, i16, i8, i8, i8, [3 x i8], i32, i8, i8, i8, i8, i32, %struct.ImVec2, %struct.ImVec2, [4 x i8], %struct.ImVector.30, %struct.ImGuiWindowTempData, %struct.ImRect, %struct.ImRect, %struct.ImRect, %struct.ImRect, %struct.ImRect, %struct.ImRect, %struct.ImRect, %struct.ImVec2ih, %struct.ImVec2ih, i32, float, float, [4 x i8], %struct.ImGuiStorage, %struct.ImVector.37, float, i32, ptr, %struct.ImDrawList, ptr, ptr, ptr, ptr, ptr, ptr, ptr, ptr, [2 x i32], [2 x %struct.ImRect], [2 x %struct.ImVec2], i32, i32, i32, i8, [3 x i8] }>
%struct.ImGuiWindowTempData = type { %struct.ImVec2, %struct.ImVec2, %struct.ImVec2, %struct.ImVec2, %struct.ImVec2, %struct.ImVec2, %struct.ImVec2, float, float, i8, i8, %struct.ImVec1, %struct.ImVec1, %struct.ImVec1, %struct.ImVec2, i32, i16, i16, i8, i8, i8, i8, %struct.ImVec2, %struct.ImGuiMenuColumns, i32, i32, %struct.ImVector.2, ptr, ptr, i32, i32, i32, i32, float, float, %struct.ImVector.19, %struct.ImVector.19 }
%struct.ImVec1 = type { float }
%struct.ImGuiMenuColumns = type <{ i32, i32, i16, i16, i16, i16, i16, [4 x i16], [2 x i8] }>
%struct.ImVec2ih = type { i16, i16 }
%struct.ImVector.37 = type { i32, i32, ptr }
%struct.ImDrawList = type { %struct.ImVector.38, %struct.ImVector, %struct.ImVector.39, i32, i32, ptr, ptr, ptr, %struct.ImVector.0, %struct.ImDrawCmdHeader, %struct.ImDrawListSplitter, %struct.ImVector.40, %struct.ImVector.41, float, ptr }
%struct.ImVector.38 = type { i32, i32, ptr }
%struct.ImVector.39 = type { i32, i32, ptr }
%struct.ImDrawCmdHeader = type <{ %struct.ImVec4, ptr, i32, [4 x i8] }>
%struct.ImDrawListSplitter = type { i32, i32, %struct.ImVector.20 }
%struct.ImVector.40 = type { i32, i32, ptr }
%struct.ImVector.41 = type { i32, i32, ptr }

@GImGui = dso_local global ptr null, align 8

; Function Attrs: mustprogress nounwind uwtable
define dso_local void @_ZN5ImGui10SetScrollXEP11ImGuiWindowf(ptr noundef %0, float noundef %1) #1 {
  %3 = alloca ptr, align 8
  %4 = alloca float, align 4
  store ptr %0, ptr %3, align 8, !tbaa !412
  store float %1, ptr %4, align 4, !tbaa !18
  %5 = load float, ptr %4, align 4, !tbaa !18
  %6 = load ptr, ptr %3, align 8, !tbaa !412
  %7 = getelementptr inbounds nuw %struct.ImGuiWindow, ptr %6, i32 0, i32 30
  %8 = getelementptr inbounds nuw %struct.ImVec2, ptr %7, i32 0, i32 0
  store float %5, ptr %8, align 8, !tbaa !1208
  %9 = load ptr, ptr %3, align 8, !tbaa !412
  %10 = getelementptr inbounds nuw %struct.ImGuiWindow, ptr %9, i32 0, i32 31
  %11 = getelementptr inbounds nuw %struct.ImVec2, ptr %10, i32 0, i32 0
  store float 0.000000e+00, ptr %11, align 8, !tbaa !1209
  %12 = load ptr, ptr %3, align 8, !tbaa !412
  %13 = getelementptr inbounds nuw %struct.ImGuiWindow, ptr %12, i32 0, i32 32
  %14 = getelementptr inbounds nuw %struct.ImVec2, ptr %13, i32 0, i32 0
  store float 0.000000e+00, ptr %14, align 8, !tbaa !1503
  ret void
}

; Function Attrs: mustprogress nounwind uwtable
define dso_local void @_ZN5ImGui10SetScrollXEf(float noundef %0) #1 {
  %2 = alloca float, align 4
  %3 = alloca ptr, align 8
  store float %0, ptr %2, align 4, !tbaa !18
  call void @llvm.lifetime.start.p0(i64 8, ptr %3) #16
  %4 = load ptr, ptr @GImGui, align 8, !tbaa !133
  store ptr %4, ptr %3, align 8, !tbaa !133
  %5 = load ptr, ptr %3, align 8, !tbaa !133
  %6 = getelementptr inbounds nuw %struct.ImGuiContext, ptr %5, i32 0, i32 34
  %7 = load ptr, ptr %6, align 8, !tbaa !382
  %8 = load float, ptr %2, align 4, !tbaa !18
  call void @_ZN5ImGui10SetScrollXEP11ImGuiWindowf(ptr noundef %7, float noundef %8)
  call void @llvm.lifetime.end.p0(i64 8, ptr %3) #16
  ret void
}