; Function Attrs: mustprogress nofree norecurse nosync nounwind willreturn memory(readwrite, inaccessiblemem: none) uwtable
define dso_local void @_ZN5ImGui10SetScrollXEf(float noundef %0) local_unnamed_addr #34 {
  %2 = load ptr, ptr @GImGui, align 8, !tbaa !211
  %3 = getelementptr inbounds nuw i8, ptr %2, i64 4928
  %4 = load ptr, ptr %3, align 8, !tbaa !308
  %5 = getelementptr inbounds nuw i8, ptr %4, i64 168
  store float %0, ptr %5, align 8, !tbaa !965
  %6 = getelementptr inbounds nuw i8, ptr %4, i64 176
  store float 0.000000e+00, ptr %6, align 8, !tbaa !966
  %7 = getelementptr inbounds nuw i8, ptr %4, i64 184
  store float 0.000000e+00, ptr %7, align 8, !tbaa !967
  ret void
}